target datalayout = "e-m:e-p270:32:32-p271:32:32-p272:64:64-i64:64-i128:128-f80:128-n8:16:32:64-S128"
target triple = "x86_64-pc-linux-gnu"

%struct.CvSeq = type { i32, i32, ptr, ptr, ptr, ptr, i32, i32, ptr, ptr, i32, ptr, ptr, ptr }
%struct.CvSlice = type { i32, i32 }

; Function Attrs: mustprogress nounwind uwtable
define i32 @cvSliceLength(i64 %0, ptr noundef %1) #4 {
  %3 = alloca %struct.CvSlice, align 4
  %4 = alloca ptr, align 8
  %5 = alloca i32, align 4
  %6 = alloca i32, align 4
  store i64 %0, ptr %3, align 4
  store ptr %1, ptr %4, align 8, !tbaa !40
  call void @llvm.lifetime.start.p0(i64 4, ptr %5) #13
  %7 = load ptr, ptr %4, align 8, !tbaa !40
  %8 = getelementptr inbounds nuw %struct.CvSeq, ptr %7, i32 0, i32 6
  %9 = load i32, ptr %8, align 8, !tbaa !49
  store i32 %9, ptr %5, align 4, !tbaa !3
  call void @llvm.lifetime.start.p0(i64 4, ptr %6) #13
  %10 = getelementptr inbounds nuw %struct.CvSlice, ptr %3, i32 0, i32 1
  %11 = load i32, ptr %10, align 4, !tbaa !65
  %12 = getelementptr inbounds nuw %struct.CvSlice, ptr %3, i32 0, i32 0
  %13 = load i32, ptr %12, align 4, !tbaa !67
  %14 = sub nsw i32 %11, %13
  store i32 %14, ptr %6, align 4, !tbaa !3
  %15 = load i32, ptr %6, align 4, !tbaa !3
  %16 = icmp ne i32 %15, 0
  br i1 %16, label %17, label %41

17:                                               ; preds = %2
  %18 = getelementptr inbounds nuw %struct.CvSlice, ptr %3, i32 0, i32 0
  %19 = load i32, ptr %18, align 4, !tbaa !67
  %20 = icmp slt i32 %19, 0
  br i1 %20, label %21, label %26

21:                                               ; preds = %17
  %22 = load i32, ptr %5, align 4, !tbaa !3
  %23 = getelementptr inbounds nuw %struct.CvSlice, ptr %3, i32 0, i32 0
  %24 = load i32, ptr %23, align 4, !tbaa !67
  %25 = add nsw i32 %24, %22
  store i32 %25, ptr %23, align 4, !tbaa !67
  br label %26

26:                                               ; preds = %21, %17
  %27 = getelementptr inbounds nuw %struct.CvSlice, ptr %3, i32 0, i32 1
  %28 = load i32, ptr %27, align 4, !tbaa !65
  %29 = icmp sle i32 %28, 0
  br i1 %29, label %30, label %35

30:                                               ; preds = %26
  %31 = load i32, ptr %5, align 4, !tbaa !3
  %32 = getelementptr inbounds nuw %struct.CvSlice, ptr %3, i32 0, i32 1
  %33 = load i32, ptr %32, align 4, !tbaa !65
  %34 = add nsw i32 %33, %31
  store i32 %34, ptr %32, align 4, !tbaa !65
  br label %35

35:                                               ; preds = %30, %26
  %36 = getelementptr inbounds nuw %struct.CvSlice, ptr %3, i32 0, i32 1
  %37 = load i32, ptr %36, align 4, !tbaa !65
  %38 = getelementptr inbounds nuw %struct.CvSlice, ptr %3, i32 0, i32 0
  %39 = load i32, ptr %38, align 4, !tbaa !67
  %40 = sub nsw i32 %37, %39
  store i32 %40, ptr %6, align 4, !tbaa !3
  br label %41

41:                                               ; preds = %35, %2
  br label %42

42:                                               ; preds = %45, %41
  %43 = load i32, ptr %6, align 4, !tbaa !3
  %44 = icmp slt i32 %43, 0
  br i1 %44, label %45, label %49

45:                                               ; preds = %42
  %46 = load i32, ptr %5, align 4, !tbaa !3
  %47 = load i32, ptr %6, align 4, !tbaa !3
  %48 = add nsw i32 %47, %46
  store i32 %48, ptr %6, align 4, !tbaa !3
  br label %42, !llvm.loop !68

49:                                               ; preds = %42
  %50 = load i32, ptr %6, align 4, !tbaa !3
  %51 = load i32, ptr %5, align 4, !tbaa !3
  %52 = icmp sgt i32 %50, %51
  br i1 %52, label %53, label %55

53:                                               ; preds = %49
  %54 = load i32, ptr %5, align 4, !tbaa !3
  store i32 %54, ptr %6, align 4, !tbaa !3
  br label %55

55:                                               ; preds = %53, %49
  %56 = load i32, ptr %6, align 4, !tbaa !3
  call void @llvm.lifetime.end.p0(i64 4, ptr %6) #13
  call void @llvm.lifetime.end.p0(i64 4, ptr %5) #13
  ret i32 %56
}