; Function Attrs: mustprogress nofree norecurse nosync nounwind willreturn memory(argmem: read) uwtable
define i32 @cvSliceLength(i64 %0, ptr noundef readonly captures(none) %1) local_unnamed_addr #6 {
  %.sroa.0.0.extract.trunc = trunc i64 %0 to i32
  %.sroa.6.0.extract.shift = lshr i64 %0, 32
  %.sroa.6.0.extract.trunc = trunc nuw i64 %.sroa.6.0.extract.shift to i32
  %3 = getelementptr inbounds nuw i8, ptr %1, i64 40
  %4 = load i32, ptr %3, align 8, !tbaa !42
  %.not = icmp eq i32 %.sroa.6.0.extract.trunc, %.sroa.0.0.extract.trunc
  br i1 %.not, label %12, label %5

5:                                                ; preds = %2
  %6 = icmp slt i32 %.sroa.0.0.extract.trunc, 0
  %7 = select i1 %6, i32 %4, i32 0
  %.inv = icmp sgt i32 %.sroa.6.0.extract.trunc, 0
  %8 = select i1 %.inv, i32 0, i32 %4
  %9 = add i32 %8, %.sroa.6.0.extract.trunc
  %10 = add i32 %7, %.sroa.0.0.extract.trunc
  %11 = sub i32 %9, %10
  br label %12

12:                                               ; preds = %5, %2
  %.0 = phi i32 [ %11, %5 ], [ 0, %2 ]
  %smax = tail call i32 @llvm.smax.i32(i32 %.0, i32 0)
  %.0.lobit = lshr i32 %.0, 31
  %13 = add i32 %.0, %.0.lobit
  %14 = sub i32 %smax, %13
  %umax = tail call i32 @llvm.umax.i32(i32 %4, i32 1)
  %15 = udiv i32 %14, %umax
  %16 = add i32 %.0.lobit, %15
  %17 = mul i32 %4, %16
  %18 = add i32 %.0, %17
  %spec.select18 = tail call i32 @llvm.smin.i32(i32 %18, i32 %4)
  ret i32 %spec.select18
}